; Function Attrs: nounwind uwtable
define i32 @Gia_Truth5ToGia(ptr noundef %0, ptr noundef %1, i32 noundef %2, i32 noundef %3, i32 noundef %4) local_unnamed_addr #2 {
  switch i32 %3, label %.preheader.preheader [
    i32 0, label %44
    i32 -1, label %8
  ]

.preheader.preheader:                             ; preds = %5
  %6 = zext i32 %2 to i64
  %smin = tail call i32 @llvm.smin.i32(i32 %2, i32 0)
  %7 = add i32 %smin, -1
  br label %.preheader

8:                                                ; preds = %5
  br label %44

.preheader:                                       ; preds = %.preheader.preheader, %11
  %indvars.iv = phi i64 [ %6, %.preheader.preheader ], [ %indvars.iv.next, %11 ]
  %9 = trunc nuw i64 %indvars.iv to i32
  %10 = icmp sgt i32 %9, 0
  br i1 %10, label %11, label %.preheader._crit_edge

.preheader._crit_edge:                            ; preds = %.preheader
  %.pre = shl nuw nsw i32 1, %7
  br label %split

11:                                               ; preds = %.preheader
  %indvars.iv.next = add nsw i64 %indvars.iv, -1
  %indvars = trunc i64 %indvars.iv.next to i32
  %12 = shl nuw i32 1, %indvars
  %13 = shl i32 %3, %12
  %14 = and i64 %indvars.iv.next, 4294967295
  %15 = getelementptr inbounds nuw [6 x i32], ptr @s_Truths5, i64 0, i64 %14
  %16 = load i32, ptr %15, align 4, !tbaa !31
  %17 = xor i32 %13, %3
  %18 = and i32 %16, %17
  %.not33 = icmp eq i32 %18, 0
  br i1 %.not33, label %.preheader, label %split, !llvm.loop !32

split:                                            ; preds = %11, %.preheader._crit_edge
  %.pre-phi = phi i32 [ %.pre, %.preheader._crit_edge ], [ %12, %11 ]
  %.030.lcssa = phi i32 [ %7, %.preheader._crit_edge ], [ %indvars, %11 ]
  %19 = sext i32 %.030.lcssa to i64
  %20 = getelementptr inbounds [6 x i32], ptr @s_Truths5Neg, i64 0, i64 %19
  %21 = load i32, ptr %20, align 4, !tbaa !31
  %22 = and i32 %21, %3
  %23 = shl i32 %22, %.pre-phi
  %24 = or i32 %23, %22
  %25 = tail call i32 @Gia_Truth5ToGia(ptr noundef %0, ptr noundef %1, i32 noundef %.030.lcssa, i32 noundef %24, i32 noundef %4)
  %26 = getelementptr inbounds [6 x i32], ptr @s_Truths5, i64 0, i64 %19
  %27 = load i32, ptr %26, align 4, !tbaa !31
  %28 = and i32 %27, %3
  %29 = lshr i32 %28, %.pre-phi
  %30 = or i32 %29, %28
  %31 = tail call i32 @Gia_Truth5ToGia(ptr noundef %0, ptr noundef %1, i32 noundef %.030.lcssa, i32 noundef %30, i32 noundef %4)
  %.not32 = icmp eq i32 %4, 0
  %32 = getelementptr inbounds i32, ptr %1, i64 %19
  %33 = load i32, ptr %32, align 4, !tbaa !31
  br i1 %.not32, label %36, label %34

34:                                               ; preds = %split
  %35 = tail call i32 @Gia_ManHashMux(ptr noundef %0, i32 noundef %33, i32 noundef %31, i32 noundef %25) #23
  br label %44

36:                                               ; preds = %split
  %37 = xor i32 %33, 1
  %38 = tail call fastcc i32 @Gia_ManAppendAnd(ptr noundef %0, i32 noundef %37, i32 noundef %25)
  %39 = tail call fastcc i32 @Gia_ManAppendAnd(ptr noundef %0, i32 noundef %33, i32 noundef %31)
  %40 = xor i32 %38, 1
  %41 = xor i32 %39, 1
  %42 = tail call fastcc i32 @Gia_ManAppendAnd(ptr noundef %0, i32 noundef %40, i32 noundef %41)
  %43 = xor i32 %42, 1
  br label %44

44:                                               ; preds = %5, %36, %34, %8
  %.0 = phi i32 [ 1, %8 ], [ %35, %34 ], [ %43, %36 ], [ %3, %5 ]
  ret i32 %.0
}